; Function Attrs: mustprogress nounwind uwtable
define hidden void @_ZN11ZMountPointC2EPKcPS1_(ptr nocapture noundef nonnull writeonly align 8 dereferenceable(8) %0, ptr noundef %1, ptr nocapture noundef readonly %2) unnamed_addr #0 align 2 {
  %4 = load ptr, ptr @AllocateHeapAt, align 8
  %.not = icmp eq ptr %4, null
  br i1 %.not, label %7, label %5

5:                                                ; preds = %3
  %6 = tail call noundef ptr @_ZN2os6strdupEPKc8MEMFLAGS(ptr noundef nonnull %4, i8 noundef zeroext 5) #11
  br label %9

7:                                                ; preds = %3
  %8 = tail call noundef ptr @_ZNK11ZMountPoint15find_mountpointEPKcPS1_(ptr noundef nonnull align 8 dereferenceable(8) %0, ptr noundef %1, ptr noundef %2)
  br label %9

9:                                                ; preds = %7, %5
  %storemerge = phi ptr [ %8, %7 ], [ %6, %5 ]
  store ptr %storemerge, ptr %0, align 8
  ret void
}